; Function Attrs: nounwind uwtable
define internal void @ff_tx_mdct_inv_full_double_c(ptr noundef readonly captures(none) %0, ptr noundef %1, ptr noundef %2, i64 noundef %3) #3 {
  %5 = load i32, ptr %0, align 8, !tbaa !16
  %6 = shl i32 %5, 1
  %7 = ashr i32 %6, 2
  %8 = getelementptr inbounds nuw i8, ptr %0, i64 40
  %9 = load ptr, ptr %8, align 8, !tbaa !4
  %10 = getelementptr inbounds nuw i8, ptr %0, i64 32
  %11 = load ptr, ptr %10, align 8, !tbaa !57
  %12 = sext i32 %7 to i64
  %13 = getelementptr inbounds double, ptr %1, i64 %12
  tail call void %9(ptr noundef %11, ptr noundef %13, ptr noundef %2, i64 noundef %3) #16
  %14 = lshr i64 %3, 3
  %15 = icmp sgt i32 %7, 0
  br i1 %15, label %.lr.ph.preheader, label %._crit_edge

.lr.ph.preheader:                                 ; preds = %4
  %16 = and i32 %5, 2147483647
  %17 = zext nneg i32 %16 to i64
  %wide.trip.count = zext nneg i32 %7 to i64
  br label %.lr.ph

._crit_edge:                                      ; preds = %.lr.ph, %4
  ret void

.lr.ph:                                           ; preds = %.lr.ph.preheader, %.lr.ph
  %indvars.iv = phi i64 [ 0, %.lr.ph.preheader ], [ %indvars.iv.next, %.lr.ph ]
  %18 = xor i64 %indvars.iv, -1
  %19 = add nsw i64 %17, %18
  %20 = mul nsw i64 %14, %19
  %21 = getelementptr inbounds double, ptr %1, i64 %20
  %22 = load double, ptr %21, align 8, !tbaa !27
  %23 = fneg nsz double %22
  %24 = mul nuw nsw i64 %14, %indvars.iv
  %25 = getelementptr inbounds nuw double, ptr %1, i64 %24
  store double %23, ptr %25, align 8, !tbaa !27
  %26 = add nuw nsw i64 %indvars.iv, %17
  %27 = mul nuw nsw i64 %14, %26
  %28 = getelementptr inbounds nuw double, ptr %1, i64 %27
  %29 = load double, ptr %28, align 8, !tbaa !27
  %30 = trunc nsw i64 %18 to i32
  %31 = add i32 %6, %30
  %32 = sext i32 %31 to i64
  %33 = mul nsw i64 %14, %32
  %34 = getelementptr inbounds double, ptr %1, i64 %33
  store double %29, ptr %34, align 8, !tbaa !27
  %indvars.iv.next = add nuw nsw i64 %indvars.iv, 1
  %exitcond.not = icmp eq i64 %indvars.iv.next, %wide.trip.count
  br i1 %exitcond.not, label %._crit_edge, label %.lr.ph, !llvm.loop !137
}